target datalayout = "e-m:e-p270:32:32-p271:32:32-p272:64:64-i64:64-i128:128-f80:128-n8:16:32:64-S128"
target triple = "x86_64-pc-linux-gnu"

%struct.testVector = type { ptr, ptr, i64, i64 }
%struct.wc_Sha256 = type { [8 x i32], [16 x i32], i32, i32, i32, ptr, [8 x i8] }

@.str.24 = private unnamed_addr constant [4 x i8] c"abc\00", align 1
@.str.35 = private unnamed_addr constant [57 x i8] c"abcdbcdecdefdefgefghfghighijhijkijkljklmklmnlmnomnopnopq\00", align 1
@.str.43 = private unnamed_addr constant [33 x i8] c"\BAx\16\BF\8F\01\CF\EAAA@\DE]\AE\22#\B0\03a\A3\96\17z\9C\B4\10\FFa\F2\00\15\AD\00", align 1
@.str.44 = private unnamed_addr constant [33 x i8] c"$\8Dja\D2\068\B8\E5\C0&\93\0C>`9\A3<\E4Yd\FF!g\F6\EC\ED\D4\19\DB\06\C1\00", align 1

; Function Attrs: nounwind uwtable
define dso_local i32 @sha256_test() #0 {
  %1 = alloca i32, align 4
  %2 = alloca %struct.wc_Sha256, align 16
  %3 = alloca [32 x i8], align 16
  %4 = alloca %struct.testVector, align 8
  %5 = alloca %struct.testVector, align 8
  %6 = alloca [2 x %struct.testVector], align 16
  %7 = alloca i32, align 4
  %8 = alloca i32, align 4
  %9 = alloca i32, align 4
  %10 = alloca i32, align 4
  call void @llvm.lifetime.start.p0(i64 128, ptr %2) #5
  call void @llvm.lifetime.start.p0(i64 32, ptr %3) #5
  call void @llvm.lifetime.start.p0(i64 32, ptr %4) #5
  call void @llvm.lifetime.start.p0(i64 32, ptr %5) #5
  call void @llvm.lifetime.start.p0(i64 64, ptr %6) #5
  call void @llvm.lifetime.start.p0(i64 4, ptr %7) #5
  call void @llvm.lifetime.start.p0(i64 4, ptr %8) #5
  store i32 2, ptr %8, align 4, !tbaa !4
  call void @llvm.lifetime.start.p0(i64 4, ptr %9) #5
  %11 = getelementptr inbounds nuw %struct.testVector, ptr %4, i32 0, i32 0
  store ptr @.str.24, ptr %11, align 8, !tbaa !8
  %12 = getelementptr inbounds nuw %struct.testVector, ptr %4, i32 0, i32 1
  store ptr @.str.43, ptr %12, align 8, !tbaa !13
  %13 = getelementptr inbounds nuw %struct.testVector, ptr %4, i32 0, i32 0
  %14 = load ptr, ptr %13, align 8, !tbaa !8
  %15 = call i64 @strlen(ptr noundef %14) #6
  %16 = getelementptr inbounds nuw %struct.testVector, ptr %4, i32 0, i32 2
  store i64 %15, ptr %16, align 8, !tbaa !14
  %17 = getelementptr inbounds nuw %struct.testVector, ptr %4, i32 0, i32 1
  %18 = load ptr, ptr %17, align 8, !tbaa !13
  %19 = call i64 @strlen(ptr noundef %18) #6
  %20 = getelementptr inbounds nuw %struct.testVector, ptr %4, i32 0, i32 3
  store i64 %19, ptr %20, align 8, !tbaa !15
  %21 = getelementptr inbounds nuw %struct.testVector, ptr %5, i32 0, i32 0
  store ptr @.str.35, ptr %21, align 8, !tbaa !8
  %22 = getelementptr inbounds nuw %struct.testVector, ptr %5, i32 0, i32 1
  store ptr @.str.44, ptr %22, align 8, !tbaa !13
  %23 = getelementptr inbounds nuw %struct.testVector, ptr %5, i32 0, i32 0
  %24 = load ptr, ptr %23, align 8, !tbaa !8
  %25 = call i64 @strlen(ptr noundef %24) #6
  %26 = getelementptr inbounds nuw %struct.testVector, ptr %5, i32 0, i32 2
  store i64 %25, ptr %26, align 8, !tbaa !14
  %27 = getelementptr inbounds nuw %struct.testVector, ptr %5, i32 0, i32 1
  %28 = load ptr, ptr %27, align 8, !tbaa !13
  %29 = call i64 @strlen(ptr noundef %28) #6
  %30 = getelementptr inbounds nuw %struct.testVector, ptr %5, i32 0, i32 3
  store i64 %29, ptr %30, align 8, !tbaa !15
  %31 = getelementptr inbounds [2 x %struct.testVector], ptr %6, i64 0, i64 0
  call void @llvm.memcpy.p0.p0.i64(ptr align 16 %31, ptr align 8 %4, i64 32, i1 false), !tbaa.struct !16
  %32 = getelementptr inbounds [2 x %struct.testVector], ptr %6, i64 0, i64 1
  call void @llvm.memcpy.p0.p0.i64(ptr align 16 %32, ptr align 8 %5, i64 32, i1 false), !tbaa.struct !16
  %33 = call i32 @wc_InitSha256(ptr noundef %2)
  store i32 %33, ptr %7, align 4, !tbaa !4
  %34 = load i32, ptr %7, align 4, !tbaa !4
  %35 = icmp ne i32 %34, 0
  br i1 %35, label %36, label %38

36:                                               ; preds = %0
  %37 = load i32, ptr %7, align 4, !tbaa !4
  store i32 %37, ptr %1, align 4
  store i32 1, ptr %10, align 4
  br label %84

38:                                               ; preds = %0
  store i32 0, ptr %9, align 4, !tbaa !4
  br label %39

39:                                               ; preds = %80, %38
  %40 = load i32, ptr %9, align 4, !tbaa !4
  %41 = load i32, ptr %8, align 4, !tbaa !4
  %42 = icmp slt i32 %40, %41
  br i1 %42, label %43, label %83

43:                                               ; preds = %39
  %44 = load i32, ptr %9, align 4, !tbaa !4
  %45 = sext i32 %44 to i64
  %46 = getelementptr inbounds [2 x %struct.testVector], ptr %6, i64 0, i64 %45
  %47 = getelementptr inbounds nuw %struct.testVector, ptr %46, i32 0, i32 0
  %48 = load ptr, ptr %47, align 16, !tbaa !8
  %49 = load i32, ptr %9, align 4, !tbaa !4
  %50 = sext i32 %49 to i64
  %51 = getelementptr inbounds [2 x %struct.testVector], ptr %6, i64 0, i64 %50
  %52 = getelementptr inbounds nuw %struct.testVector, ptr %51, i32 0, i32 2
  %53 = load i64, ptr %52, align 16, !tbaa !14
  %54 = trunc i64 %53 to i32
  %55 = call i32 @wc_Sha256Update(ptr noundef %2, ptr noundef %48, i32 noundef %54)
  store i32 %55, ptr %7, align 4, !tbaa !4
  %56 = load i32, ptr %7, align 4, !tbaa !4
  %57 = icmp ne i32 %56, 0
  br i1 %57, label %58, label %60

58:                                               ; preds = %43
  %59 = load i32, ptr %7, align 4, !tbaa !4
  store i32 %59, ptr %1, align 4
  store i32 1, ptr %10, align 4
  br label %84

60:                                               ; preds = %43
  %61 = getelementptr inbounds [32 x i8], ptr %3, i64 0, i64 0
  %62 = call i32 @wc_Sha256Final(ptr noundef %2, ptr noundef %61)
  store i32 %62, ptr %7, align 4, !tbaa !4
  %63 = load i32, ptr %7, align 4, !tbaa !4
  %64 = icmp ne i32 %63, 0
  br i1 %64, label %65, label %67

65:                                               ; preds = %60
  %66 = load i32, ptr %7, align 4, !tbaa !4
  store i32 %66, ptr %1, align 4
  store i32 1, ptr %10, align 4
  br label %84

67:                                               ; preds = %60
  %68 = getelementptr inbounds [32 x i8], ptr %3, i64 0, i64 0
  %69 = load i32, ptr %9, align 4, !tbaa !4
  %70 = sext i32 %69 to i64
  %71 = getelementptr inbounds [2 x %struct.testVector], ptr %6, i64 0, i64 %70
  %72 = getelementptr inbounds nuw %struct.testVector, ptr %71, i32 0, i32 1
  %73 = load ptr, ptr %72, align 8, !tbaa !13
  %74 = call i32 @memcmp(ptr noundef %68, ptr noundef %73, i64 noundef 32) #6
  %75 = icmp ne i32 %74, 0
  br i1 %75, label %76, label %79

76:                                               ; preds = %67
  %77 = load i32, ptr %9, align 4, !tbaa !4
  %78 = sub nsw i32 -10, %77
  store i32 %78, ptr %1, align 4
  store i32 1, ptr %10, align 4
  br label %84

79:                                               ; preds = %67
  br label %80

80:                                               ; preds = %79
  %81 = load i32, ptr %9, align 4, !tbaa !4
  %82 = add nsw i32 %81, 1
  store i32 %82, ptr %9, align 4, !tbaa !4
  br label %39, !llvm.loop !23

83:                                               ; preds = %39
  call void @wc_Sha256Free(ptr noundef %2)
  store i32 0, ptr %1, align 4
  store i32 1, ptr %10, align 4
  br label %84

84:                                               ; preds = %83, %76, %65, %58, %36
  call void @llvm.lifetime.end.p0(i64 4, ptr %9) #5
  call void @llvm.lifetime.end.p0(i64 4, ptr %8) #5
  call void @llvm.lifetime.end.p0(i64 4, ptr %7) #5
  call void @llvm.lifetime.end.p0(i64 64, ptr %6) #5
  call void @llvm.lifetime.end.p0(i64 32, ptr %5) #5
  call void @llvm.lifetime.end.p0(i64 32, ptr %4) #5
  call void @llvm.lifetime.end.p0(i64 32, ptr %3) #5
  call void @llvm.lifetime.end.p0(i64 128, ptr %2) #5
  %85 = load i32, ptr %1, align 4
  ret i32 %85
}