; Function Attrs: nounwind uwtable
define dso_local i32 @sha256_test() local_unnamed_addr #0 {
  %1 = alloca %struct.wc_Sha256, align 16
  %2 = alloca [32 x i8], align 16
  %3 = alloca [2 x %struct.testVector], align 16
  call void @llvm.lifetime.start.p0(i64 128, ptr nonnull %1) #6
  call void @llvm.lifetime.start.p0(i64 32, ptr nonnull %2) #6
  call void @llvm.lifetime.start.p0(i64 64, ptr nonnull %3) #6
  store ptr @.str.24, ptr %3, align 16, !tbaa !4
  %.sroa.514.0..sroa_idx = getelementptr inbounds nuw i8, ptr %3, i64 8
  store ptr @.str.43, ptr %.sroa.514.0..sroa_idx, align 8, !tbaa !4
  %.sroa.715.0..sroa_idx = getelementptr inbounds nuw i8, ptr %3, i64 16
  store i64 3, ptr %.sroa.715.0..sroa_idx, align 16, !tbaa !9
  %4 = getelementptr inbounds nuw i8, ptr %3, i64 32
  store ptr @.str.35, ptr %4, align 16, !tbaa !4
  %.sroa.5.0..sroa_idx = getelementptr inbounds nuw i8, ptr %3, i64 40
  store ptr @.str.44, ptr %.sroa.5.0..sroa_idx, align 8, !tbaa !4
  %.sroa.7.0..sroa_idx = getelementptr inbounds nuw i8, ptr %3, i64 48
  store i64 56, ptr %.sroa.7.0..sroa_idx, align 16, !tbaa !9
  %5 = call i32 @wc_InitSha256(ptr noundef nonnull %1) #6
  %.not = icmp eq i32 %5, 0
  %indvars.iv.sroa.gep = getelementptr inbounds nuw i8, ptr %3, i64 32
  br i1 %.not, label %.preheader, label %.loopexit

.preheader:                                       ; preds = %0, %17
  %6 = phi i1 [ false, %17 ], [ true, %0 ]
  %indvars.iv.sroa.phi = phi ptr [ %indvars.iv.sroa.gep, %17 ], [ %3, %0 ]
  %indvars.iv = phi i32 [ -11, %17 ], [ -10, %0 ]
  %7 = load ptr, ptr %indvars.iv.sroa.phi, align 16, !tbaa !11
  %8 = getelementptr inbounds nuw i8, ptr %indvars.iv.sroa.phi, i64 16
  %9 = load i64, ptr %8, align 16, !tbaa !13
  %10 = trunc i64 %9 to i32
  %11 = call i32 @wc_Sha256Update(ptr noundef nonnull %1, ptr noundef %7, i32 noundef %10) #6
  %.not22 = icmp eq i32 %11, 0
  br i1 %.not22, label %12, label %.loopexit

12:                                               ; preds = %.preheader
  %13 = call i32 @wc_Sha256Final(ptr noundef nonnull %1, ptr noundef nonnull %2) #6
  %.not23 = icmp eq i32 %13, 0
  br i1 %.not23, label %14, label %.loopexit

14:                                               ; preds = %12
  %15 = getelementptr inbounds nuw i8, ptr %indvars.iv.sroa.phi, i64 8
  %16 = load ptr, ptr %15, align 8, !tbaa !14
  %bcmp = call i32 @bcmp(ptr noundef nonnull dereferenceable(32) %2, ptr noundef nonnull dereferenceable(32) %16, i64 32)
  %.not24 = icmp eq i32 %bcmp, 0
  br i1 %.not24, label %17, label %.loopexit

17:                                               ; preds = %14
  br i1 %6, label %.preheader, label %18, !llvm.loop !19

18:                                               ; preds = %17
  call void @wc_Sha256Free(ptr noundef nonnull %1) #6
  br label %.loopexit

.loopexit:                                        ; preds = %12, %.preheader, %14, %0, %18
  %.018 = phi i32 [ 0, %18 ], [ %5, %0 ], [ %indvars.iv, %14 ], [ %13, %12 ], [ %11, %.preheader ]
  call void @llvm.lifetime.end.p0(i64 64, ptr nonnull %3) #6
  call void @llvm.lifetime.end.p0(i64 32, ptr nonnull %2) #6
  call void @llvm.lifetime.end.p0(i64 128, ptr nonnull %1) #6
  ret i32 %.018
}